target datalayout = "e-m:e-p270:32:32-p271:32:32-p272:64:64-i64:64-i128:128-f80:128-n8:16:32:64-S128"
target triple = "x86_64-pc-linux-gnu"

%"class.zxing::BitArray" = type { %"class.zxing::Counted.base", i32, %"class.zxing::ArrayRef", %"class.zxing::ArrayRef.0", %"class.zxing::ArrayRef.0" }
%"class.zxing::Counted.base" = type <{ ptr, i32 }>
%"class.zxing::ArrayRef" = type { %"class.zxing::Counted.base", ptr }
%"class.zxing::ArrayRef.0" = type { %"class.zxing::Counted.base", ptr }
%"class.zxing::Counted" = type <{ ptr, i32, [4 x i8] }>
%"class.zxing::Array" = type { %"class.zxing::Counted.base", %"class.std::vector" }
%"class.std::vector" = type { %"struct.std::_Vector_base" }
%"struct.std::_Vector_base" = type { %"struct.std::_Vector_base<unsigned char, std::allocator<unsigned char>>::_Vector_impl" }
%"struct.std::_Vector_base<unsigned char, std::allocator<unsigned char>>::_Vector_impl" = type { %"struct.std::_Vector_base<unsigned char, std::allocator<unsigned char>>::_Vector_impl_data" }
%"struct.std::_Vector_base<unsigned char, std::allocator<unsigned char>>::_Vector_impl_data" = type { ptr, ptr, ptr }
%"class.zxing::BitArray::Reverse" = type { %"class.zxing::Ref" }
%"class.zxing::Ref" = type { ptr }

; Function Attrs: mustprogress nounwind uwtable
define linkonce_odr hidden noundef nonnull align 1 dereferenceable(1) ptr @_ZNSt6vectorIhSaIhEEixEm(ptr noundef nonnull align 8 dereferenceable(24) %0, i64 noundef %1) #1 comdat align 2 {
  %3 = alloca ptr, align 8
  %4 = alloca i64, align 8
  store ptr %0, ptr %3, align 8, !tbaa !85
  store i64 %1, ptr %4, align 8, !tbaa !56
  %5 = load ptr, ptr %3, align 8
  %6 = getelementptr inbounds nuw %"struct.std::_Vector_base", ptr %5, i32 0, i32 0
  %7 = getelementptr inbounds nuw %"struct.std::_Vector_base<unsigned char, std::allocator<unsigned char>>::_Vector_impl_data", ptr %6, i32 0, i32 0
  %8 = load ptr, ptr %7, align 8, !tbaa !87
  %9 = load i64, ptr %4, align 8, !tbaa !56
  %10 = getelementptr inbounds nuw i8, ptr %8, i64 %9
  ret ptr %10
}

; Function Attrs: mustprogress nounwind uwtable
define linkonce_odr hidden noundef ptr @_ZN5zxing5ArrayIhE4dataEv(ptr noundef nonnull align 8 dereferenceable(40) %0) #1 comdat align 2 {
  %2 = alloca ptr, align 8
  store ptr %0, ptr %2, align 8, !tbaa !39
  %3 = load ptr, ptr %2, align 8
  %4 = getelementptr inbounds nuw %"class.zxing::Array", ptr %3, i32 0, i32 1
  %5 = call noundef nonnull align 1 dereferenceable(1) ptr @_ZNSt6vectorIhSaIhEEixEm(ptr noundef nonnull align 8 dereferenceable(24) %4, i64 noundef 0) #12
  ret ptr %5
}

; Function Attrs: mustprogress nounwind uwtable
define linkonce_odr hidden noundef ptr @_ZNK5zxing8ArrayRefIhEptEv(ptr noundef nonnull align 8 dereferenceable(24) %0) #1 comdat align 2 {
  %2 = alloca ptr, align 8
  store ptr %0, ptr %2, align 8, !tbaa !22
  %3 = load ptr, ptr %2, align 8
  %4 = getelementptr inbounds nuw %"class.zxing::ArrayRef", ptr %3, i32 0, i32 1
  %5 = load ptr, ptr %4, align 8, !tbaa !24
  ret ptr %5
}

; Function Attrs: mustprogress nounwind uwtable
define linkonce_odr hidden void @_ZN5zxing7Counted7releaseEv(ptr noundef nonnull align 8 dereferenceable(12) %0) #1 comdat align 2 {
  %2 = alloca ptr, align 8
  store ptr %0, ptr %2, align 8, !tbaa !19
  %3 = load ptr, ptr %2, align 8
  %4 = getelementptr inbounds nuw %"class.zxing::Counted", ptr %3, i32 0, i32 1
  %5 = load i32, ptr %4, align 8, !tbaa !21
  %6 = add i32 %5, -1
  store i32 %6, ptr %4, align 8, !tbaa !21
  %7 = getelementptr inbounds nuw %"class.zxing::Counted", ptr %3, i32 0, i32 1
  %8 = load i32, ptr %7, align 8, !tbaa !21
  %9 = icmp eq i32 %8, 0
  br i1 %9, label %10, label %18

10:                                               ; preds = %1
  %11 = getelementptr inbounds nuw %"class.zxing::Counted", ptr %3, i32 0, i32 1
  store i32 -559026175, ptr %11, align 8, !tbaa !21
  %12 = icmp eq ptr %3, null
  br i1 %12, label %17, label %13

13:                                               ; preds = %10
  %14 = load ptr, ptr %3, align 8, !tbaa !10
  %15 = getelementptr inbounds ptr, ptr %14, i64 1
  %16 = load ptr, ptr %15, align 8
  call void %16(ptr noundef nonnull align 8 dereferenceable(12) %3) #12
  br label %17

17:                                               ; preds = %13, %10
  br label %18

18:                                               ; preds = %17, %1
  ret void
}

; Function Attrs: mustprogress uwtable
define linkonce_odr hidden noundef ptr @_ZN5zxing8BitArray13getRowBoolPtrEv(ptr noundef nonnull align 8 dereferenceable(88) %0) #0 comdat align 2 {
  %2 = alloca ptr, align 8
  store ptr %0, ptr %2, align 8, !tbaa !3
  %3 = load ptr, ptr %2, align 8
  %4 = getelementptr inbounds nuw %"class.zxing::BitArray", ptr %3, i32 0, i32 2
  %5 = call noundef ptr @_ZNK5zxing8ArrayRefIhEptEv(ptr noundef nonnull align 8 dereferenceable(24) %4)
  %6 = call noundef ptr @_ZN5zxing5ArrayIhE4dataEv(ptr noundef nonnull align 8 dereferenceable(40) %5)
  ret ptr %6
}

; Function Attrs: noinline noreturn nounwind uwtable
define linkonce_odr hidden void @__clang_call_terminate(ptr noundef %0) #5 comdat {
  %2 = call ptr @__cxa_begin_catch(ptr %0) #12
  call void @_ZSt9terminatev() #15
  unreachable
}

; Function Attrs: mustprogress nounwind uwtable
define linkonce_odr hidden void @_ZN5zxing3RefINS_8BitArrayEED2Ev(ptr noundef nonnull align 8 dereferenceable(8) %0) unnamed_addr #1 comdat align 2 {
  %2 = alloca ptr, align 8
  store ptr %0, ptr %2, align 8, !tbaa !61
  %3 = load ptr, ptr %2, align 8
  %4 = getelementptr inbounds nuw %"class.zxing::Ref", ptr %3, i32 0, i32 0
  %5 = load ptr, ptr %4, align 8, !tbaa !63
  %6 = icmp ne ptr %5, null
  br i1 %6, label %7, label %10

7:                                                ; preds = %1
  %8 = getelementptr inbounds nuw %"class.zxing::Ref", ptr %3, i32 0, i32 0
  %9 = load ptr, ptr %8, align 8, !tbaa !63
  call void @_ZN5zxing7Counted7releaseEv(ptr noundef nonnull align 8 dereferenceable(12) %9)
  br label %10

10:                                               ; preds = %7, %1
  ret void
}

; Function Attrs: mustprogress uwtable
define hidden void @_ZN5zxing8BitArray7reverseEv(ptr noundef nonnull align 8 dereferenceable(88) %0) #0 align 2 {
  %2 = alloca ptr, align 8
  %3 = alloca ptr, align 8
  %4 = alloca i8, align 1
  %5 = alloca i32, align 4
  store ptr %0, ptr %2, align 8, !tbaa !3
  %6 = load ptr, ptr %2, align 8
  call void @llvm.lifetime.start.p0(i64 8, ptr %3) #12
  %7 = call noundef ptr @_ZN5zxing8BitArray13getRowBoolPtrEv(ptr noundef nonnull align 8 dereferenceable(88) %6)
  store ptr %7, ptr %3, align 8, !tbaa !40
  call void @llvm.lifetime.start.p0(i64 1, ptr %4) #12
  call void @llvm.lifetime.start.p0(i64 4, ptr %5) #12
  store i32 0, ptr %5, align 4, !tbaa !8
  br label %8

8:                                                ; preds = %49, %1
  %9 = load i32, ptr %5, align 4, !tbaa !8
  %10 = getelementptr inbounds nuw %"class.zxing::BitArray", ptr %6, i32 0, i32 1
  %11 = load i32, ptr %10, align 4, !tbaa !12
  %12 = sdiv i32 %11, 2
  %13 = icmp slt i32 %9, %12
  br i1 %13, label %15, label %14

14:                                               ; preds = %8
  call void @llvm.lifetime.end.p0(i64 4, ptr %5) #12
  br label %52

15:                                               ; preds = %8
  %16 = load ptr, ptr %3, align 8, !tbaa !40
  %17 = load i32, ptr %5, align 4, !tbaa !8
  %18 = sext i32 %17 to i64
  %19 = getelementptr inbounds i8, ptr %16, i64 %18
  %20 = load i8, ptr %19, align 1, !tbaa !29, !range !33, !noundef !34
  %21 = trunc i8 %20 to i1
  %22 = zext i1 %21 to i8
  store i8 %22, ptr %4, align 1, !tbaa !29
  %23 = load ptr, ptr %3, align 8, !tbaa !40
  %24 = getelementptr inbounds nuw %"class.zxing::BitArray", ptr %6, i32 0, i32 1
  %25 = load i32, ptr %24, align 4, !tbaa !12
  %26 = load i32, ptr %5, align 4, !tbaa !8
  %27 = sub nsw i32 %25, %26
  %28 = sub nsw i32 %27, 1
  %29 = sext i32 %28 to i64
  %30 = getelementptr inbounds i8, ptr %23, i64 %29
  %31 = load i8, ptr %30, align 1, !tbaa !29, !range !33, !noundef !34
  %32 = trunc i8 %31 to i1
  %33 = load ptr, ptr %3, align 8, !tbaa !40
  %34 = load i32, ptr %5, align 4, !tbaa !8
  %35 = sext i32 %34 to i64
  %36 = getelementptr inbounds i8, ptr %33, i64 %35
  %37 = zext i1 %32 to i8
  store i8 %37, ptr %36, align 1, !tbaa !29
  %38 = load i8, ptr %4, align 1, !tbaa !29, !range !33, !noundef !34
  %39 = trunc i8 %38 to i1
  %40 = load ptr, ptr %3, align 8, !tbaa !40
  %41 = getelementptr inbounds nuw %"class.zxing::BitArray", ptr %6, i32 0, i32 1
  %42 = load i32, ptr %41, align 4, !tbaa !12
  %43 = load i32, ptr %5, align 4, !tbaa !8
  %44 = sub nsw i32 %42, %43
  %45 = sub nsw i32 %44, 1
  %46 = sext i32 %45 to i64
  %47 = getelementptr inbounds i8, ptr %40, i64 %46
  %48 = zext i1 %39 to i8
  store i8 %48, ptr %47, align 1, !tbaa !29
  br label %49

49:                                               ; preds = %15
  %50 = load i32, ptr %5, align 4, !tbaa !8
  %51 = add nsw i32 %50, 1
  store i32 %51, ptr %5, align 4, !tbaa !8
  br label %8, !llvm.loop !42

52:                                               ; preds = %14
  call void @llvm.lifetime.end.p0(i64 1, ptr %4) #12
  call void @llvm.lifetime.end.p0(i64 8, ptr %3) #12
  ret void
}

; Function Attrs: mustprogress nounwind uwtable
define linkonce_odr hidden noundef ptr @_ZNK5zxing3RefINS_8BitArrayEEptEv(ptr noundef nonnull align 8 dereferenceable(8) %0) #1 comdat align 2 {
  %2 = alloca ptr, align 8
  store ptr %0, ptr %2, align 8, !tbaa !61
  %3 = load ptr, ptr %2, align 8
  %4 = getelementptr inbounds nuw %"class.zxing::Ref", ptr %3, i32 0, i32 0
  %5 = load ptr, ptr %4, align 8, !tbaa !63
  ret ptr %5
}

; Function Attrs: mustprogress nounwind uwtable
define hidden void @_ZN5zxing8BitArray7ReverseD2Ev(ptr noundef nonnull align 8 dereferenceable(8) %0) unnamed_addr #1 align 2 personality ptr @__gxx_personality_v0 {
  %2 = alloca ptr, align 8
  store ptr %0, ptr %2, align 8, !tbaa !59
  %3 = load ptr, ptr %2, align 8
  %4 = getelementptr inbounds nuw %"class.zxing::BitArray::Reverse", ptr %3, i32 0, i32 0
  %5 = invoke noundef ptr @_ZNK5zxing3RefINS_8BitArrayEEptEv(ptr noundef nonnull align 8 dereferenceable(8) %4)
          to label %6 unwind label %9

6:                                                ; preds = %1
  invoke void @_ZN5zxing8BitArray7reverseEv(ptr noundef nonnull align 8 dereferenceable(88) %5)
          to label %7 unwind label %9

7:                                                ; preds = %6
  %8 = getelementptr inbounds nuw %"class.zxing::BitArray::Reverse", ptr %3, i32 0, i32 0
  call void @_ZN5zxing3RefINS_8BitArrayEED2Ev(ptr noundef nonnull align 8 dereferenceable(8) %8) #12
  ret void

9:                                                ; preds = %6, %1
  %10 = landingpad { ptr, i32 }
          catch ptr null
  %11 = extractvalue { ptr, i32 } %10, 0
  call void @__clang_call_terminate(ptr %11) #15
  unreachable
}