; Function Attrs: mustprogress nounwind uwtable
define hidden void @_ZN5zxing8BitArray7ReverseD2Ev(ptr noundef nonnull readonly align 8 captures(none) dereferenceable(8) %0) unnamed_addr #1 align 2 personality ptr @__gxx_personality_v0 {
  %2 = load ptr, ptr %0, align 8, !tbaa !49
  %3 = getelementptr inbounds nuw i8, ptr %2, i64 32
  %4 = load ptr, ptr %3, align 8, !tbaa !17
  %5 = getelementptr inbounds nuw i8, ptr %4, i64 16
  %6 = load ptr, ptr %5, align 8, !tbaa !18
  %7 = getelementptr inbounds nuw i8, ptr %2, i64 12
  %8 = load i32, ptr %7, align 4, !tbaa !10
  %9 = icmp sgt i32 %8, 1
  br i1 %9, label %.lr.ph.preheader.i, label %_ZN5zxing8BitArray7reverseEv.exit

.lr.ph.preheader.i:                               ; preds = %1
  %10 = lshr i32 %8, 1
  %11 = zext nneg i32 %8 to i64
  %wide.trip.count.i = zext nneg i32 %10 to i64
  %12 = getelementptr i8, ptr %6, i64 %11
  br label %.lr.ph.i

.lr.ph.i:                                         ; preds = %.lr.ph.i, %.lr.ph.preheader.i
  %indvars.iv.i = phi i64 [ 0, %.lr.ph.preheader.i ], [ %indvars.iv.next.i, %.lr.ph.i ]
  %13 = getelementptr inbounds nuw i8, ptr %6, i64 %indvars.iv.i
  %14 = load i8, ptr %13, align 1, !tbaa !38, !range !40, !noundef !41
  %15 = xor i64 %indvars.iv.i, -1
  %16 = getelementptr i8, ptr %12, i64 %15
  %17 = load i8, ptr %16, align 1, !tbaa !38, !range !40, !noundef !41
  store i8 %17, ptr %13, align 1, !tbaa !38
  store i8 %14, ptr %16, align 1, !tbaa !38
  %indvars.iv.next.i = add nuw nsw i64 %indvars.iv.i, 1
  %exitcond.not.i = icmp eq i64 %indvars.iv.next.i, %wide.trip.count.i
  br i1 %exitcond.not.i, label %_ZN5zxing8BitArray7reverseEv.exit, label %.lr.ph.i, !llvm.loop !42

_ZN5zxing8BitArray7reverseEv.exit:                ; preds = %.lr.ph.i, %1
  %18 = getelementptr inbounds nuw i8, ptr %2, i64 8
  %19 = load i32, ptr %18, align 8, !tbaa !3
  %20 = add i32 %19, -1
  store i32 %20, ptr %18, align 8, !tbaa !3
  %21 = icmp eq i32 %20, 0
  br i1 %21, label %22, label %_ZN5zxing3RefINS_8BitArrayEED2Ev.exit

22:                                               ; preds = %_ZN5zxing8BitArray7reverseEv.exit
  store i32 -559026175, ptr %18, align 8, !tbaa !3
  %23 = load ptr, ptr %2, align 8, !tbaa !8
  %24 = getelementptr inbounds nuw i8, ptr %23, i64 8
  %25 = load ptr, ptr %24, align 8
  tail call void %25(ptr noundef nonnull align 8 dereferenceable(12) %2) #17
  br label %_ZN5zxing3RefINS_8BitArrayEED2Ev.exit

_ZN5zxing3RefINS_8BitArrayEED2Ev.exit:            ; preds = %_ZN5zxing8BitArray7reverseEv.exit, %22
  ret void
}